ccopy_reg
_reconstructor
p0
(csklearn.naive_bayes
GaussianNB
p1
c__builtin__
object
p2
Ntp3
Rp4
(dp5
S'class_prior_'
p6
cnumpy.core.multiarray
_reconstruct
p7
(cnumpy
ndarray
p8
(I0
tp9
S'b'
p10
tp11
Rp12
(I1
(I2
tp13
cnumpy
dtype
p14
(S'f8'
p15
I0
I1
tp16
Rp17
(I3
S'<'
p18
NNNI-1
I-1
I0
tp19
bI00
S'H\xa8>\xd3\xd6\xf8\xeb?\xe2^\x05\xb3\xa4\x1c\xc0?'
p20
tp21
bsS'priors'
p22
NsS'classes_'
p23
g7
(g8
(I0
tp24
g10
tp25
Rp26
(I1
(I2
tp27
g17
I00
S'\x00\x00\x00\x00\x00\x00\x00\x00\x00\x00\x00\x00\x00\x00\xf0?'
p28
tp29
bsS'theta_'
p30
g7
(g8
(I0
tp31
g10
tp32
Rp33
(I1
(I2
I1
tp34
g17
I00
S'p\xba\xcd@\xf8\xab\xa4?\xa0\x8e4f\xe6\xfe\xc9?'
p35
tp36
bsS'sigma_'
p37
g7
(g8
(I0
tp38
g10
tp39
Rp40
(I1
(I2
I1
tp41
g17
I00
S'\xe1\xb8\xa5\xf2\x99\x8er?15\xde\xbdm\x9c\xb9?'
p42
tp43
bsS'_sklearn_version'
p44
S'0.18'
p45
sS'class_count_'
p46
g7
(g8
(I0
tp47
g10
tp48
Rp49
(I1
(I2
tp50
g17
I00
S'\x00\x00\x00\x00\x00@_@\x00\x00\x00\x00\x00\x002@'
p51
tp52
bsb.