(dp0
S'METTS MARK'
p1
(dp2
S'poi'
p3
I00
sS'exercised_stock_options'
p4
F0.0
ssS'BAXTER JOHN C'
p5
(dp6
g3
I00
sg4
I6680544
ssS'ELLIOTT STEVEN'
p7
(dp8
g3
I00
sg4
I4890344
ssS'CORDES WILLIAM R'
p9
(dp10
g3
I00
sg4
I651850
ssS'HANNON KEVIN P'
p11
(dp12
g3
I01
sg4
I5538001
ssS'MORDAUNT KRISTINA M'
p13
(dp14
g3
I00
sg4
F0.0
ssS'MEYER ROCKFORD G'
p15
(dp16
g3
I00
sg4
I493489
ssS'MCMAHON JEFFREY'
p17
(dp18
g3
I00
sg4
I1104054
ssS'HORTON STANLEY C'
p19
(dp20
g3
I00
sg4
I5210569
ssS'PIPER GREGORY F'
p21
(dp22
g3
I00
sg4
I880290
ssS'HUMPHREY GENE E'
p23
(dp24
g3
I00
sg4
I2282768
ssS'UMANOFF ADAM S'
p25
(dp26
g3
I00
sg4
F0.0
ssS'BLACHMAN JEREMY M'
p27
(dp28
g3
I00
sg4
I765313
ssS'SUNDE MARTIN'
p29
(dp30
g3
I00
sg4
F0.0
ssS'GIBBS DANA R'
p31
(dp32
g3
I00
sg4
I2218275
ssS'LOWRY CHARLES P'
p33
(dp34
g3
I00
sg4
I372205
ssS'COLWELL WESLEY'
p35
(dp36
g3
I01
sg4
F0.0
ssS'MULLER MARK S'
p37
(dp38
g3
I00
sg4
I1056320
ssS'JACKSON CHARLENE R'
p39
(dp40
g3
I00
sg4
I185063
ssS'WESTFAHL RICHARD K'
p41
(dp42
g3
I00
sg4
F0.0
ssS'WALTERS GARETH W'
p43
(dp44
g3
I00
sg4
I1030329
ssS'WALLS JR ROBERT H'
p45
(dp46
g3
I00
sg4
I4346544
ssS'KITCHEN LOUISE'
p47
(dp48
g3
I00
sg4
I81042
ssS'CHAN RONNIE'
p49
(dp50
g3
I00
sg4
F0.0
ssS'BELFER ROBERT'
p51
(dp52
g3
I00
sg4
I3285
ssS'SHANKMAN JEFFREY A'
p53
(dp54
g3
I00
sg4
I1441898
ssS'WODRASKA JOHN'
p55
(dp56
g3
I00
sg4
F0.0
ssS'BERGSIEKER RICHARD P'
p57
(dp58
g3
I00
sg4
F0.0
ssS'URQUHART JOHN A'
p59
(dp60
g3
I00
sg4
F0.0
ssS'BIBI PHILIPPE A'
p61
(dp62
g3
I00
sg4
I1465734
ssS'RIEKER PAULA H'
p63
(dp64
g3
I01
sg4
I1635238
ssS'WHALEY DAVID A'
p65
(dp66
g3
I00
sg4
I98718
ssS'BECK SALLY W'
p67
(dp68
g3
I00
sg4
F0.0
ssS'HAUG DAVID L'
p69
(dp70
g3
I00
sg4
F0.0
ssS'ECHOLS JOHN B'
p71
(dp72
g3
I00
sg4
I601438
ssS'MENDELSOHN JOHN'
p73
(dp74
g3
I00
sg4
F0.0
ssS'HICKERSON GARY J'
p75
(dp76
g3
I00
sg4
F0.0
ssS'CLINE KENNETH W'
p77
(dp78
g3
I00
sg4
F0.0
ssS'LEWIS RICHARD'
p79
(dp80
g3
I00
sg4
I850477
ssS'HAYES ROBERT E'
p81
(dp82
g3
I00
sg4
F0.0
ssS'MCCARTY DANNY J'
p83
(dp84
g3
I00
sg4
I664375
ssS'KOPPER MICHAEL J'
p85
(dp86
g3
I01
sg4
F0.0
ssS'LEFF DANIEL P'
p87
(dp88
g3
I00
sg4
F0.0
ssS'LAVORATO JOHN J'
p89
(dp90
g3
I00
sg4
I4158995
ssS'BERBERIAN DAVID'
p91
(dp92
g3
I00
sg4
I1624396
ssS'DETMERING TIMOTHY J'
p93
(dp94
g3
I00
sg4
I2027865
ssS'WAKEHAM JOHN'
p95
(dp96
g3
I00
sg4
F0.0
ssS'POWERS WILLIAM'
p97
(dp98
g3
I00
sg4
F0.0
ssS'GOLD JOSEPH'
p99
(dp100
g3
I00
sg4
I436515
ssS'BANNANTINE JAMES M'
p101
(dp102
g3
I00
sg4
I4046157
ssS'DUNCAN JOHN H'
p103
(dp104
g3
I00
sg4
I371750
ssS'SHAPIRO RICHARD S'
p105
(dp106
g3
I00
sg4
I607837
ssS'SHERRIFF JOHN R'
p107
(dp108
g3
I00
sg4
I1835558
ssS'SHELBY REX'
p109
(dp110
g3
I01
sg4
I1624396
ssS'LEMAISTRE CHARLES'
p111
(dp112
g3
I00
sg4
I412878
ssS'DEFFNER JOSEPH M'
p113
(dp114
g3
I00
sg4
I17378
ssS'KISHKILL JOSEPH G'
p115
(dp116
g3
I00
sg4
F0.0
ssS'WHALLEY LAWRENCE G'
p117
(dp118
g3
I00
sg4
I3282960
ssS'MCCONNELL MICHAEL S'
p119
(dp120
g3
I00
sg4
I1623010
ssS'PIRO JIM'
p121
(dp122
g3
I00
sg4
F0.0
ssS'DELAINEY DAVID W'
p123
(dp124
g3
I01
sg4
I2291113
ssS'SULLIVAN-SHAKLOVITZ COLLEEN'
p125
(dp126
g3
I00
sg4
I1362375
ssS'WROBEL BRUCE'
p127
(dp128
g3
I00
sg4
I139130
ssS'LINDHOLM TOD A'
p129
(dp130
g3
I00
sg4
I2549361
ssS'MEYER JEROME J'
p131
(dp132
g3
I00
sg4
F0.0
ssS'LAY KENNETH L'
p133
(dp134
g3
I01
sg4
I34348384
ssS'BUTTS ROBERT H'
p135
(dp136
g3
I00
sg4
F0.0
ssS'OLSON CINDY K'
p137
(dp138
g3
I00
sg4
I1637034
ssS'MCDONALD REBECCA'
p139
(dp140
g3
I00
sg4
I757301
ssS'CUMBERLAND MICHAEL S'
p141
(dp142
g3
I00
sg4
F0.0
ssS'GAHN ROBERT S'
p143
(dp144
g3
I00
sg4
I83237
ssS'MCCLELLAN GEORGE'
p145
(dp146
g3
I00
sg4
I506765
ssS'HERMANN ROBERT J'
p147
(dp148
g3
I00
sg4
I187500
ssS'SCRIMSHAW MATTHEW'
p149
(dp150
g3
I00
sg4
I759557
ssS'GATHMANN WILLIAM D'
p151
(dp152
g3
I00
sg4
I1753766
ssS'HAEDICKE MARK E'
p153
(dp154
g3
I00
sg4
I608750
ssS'BOWEN JR RAYMOND M'
p155
(dp156
g3
I01
sg4
F0.0
ssS'GILLIS JOHN'
p157
(dp158
g3
I00
sg4
I9803
ssS'FITZGERALD JAY L'
p159
(dp160
g3
I00
sg4
I664461
ssS'MORAN MICHAEL P'
p161
(dp162
g3
I00
sg4
I59539
ssS'REDMOND BRIAN L'
p163
(dp164
g3
I00
sg4
I7509039
ssS'BAZELIDES PHILIP J'
p165
(dp166
g3
I00
sg4
I1599641
ssS'BELDEN TIMOTHY N'
p167
(dp168
g3
I01
sg4
I953136
ssS'DURAN WILLIAM D'
p169
(dp170
g3
I00
sg4
I1451869
ssS'THORN TERENCE H'
p171
(dp172
g3
I00
sg4
I4452476
ssS'FASTOW ANDREW S'
p173
(dp174
g3
I01
sg4
F0.0
ssS'FOY JOE'
p175
(dp176
g3
I00
sg4
I343434
ssS'CALGER CHRISTOPHER F'
p177
(dp178
g3
I01
sg4
F0.0
ssS'RICE KENNETH D'
p179
(dp180
g3
I01
sg4
I19794175
ssS'KAMINSKI WINCENTY J'
p181
(dp182
g3
I00
sg4
I850010
ssS'COX DAVID'
p183
(dp184
g3
I00
sg4
I117551
ssS'OVERDYKE JR JERE C'
p185
(dp186
g3
I00
sg4
I5266578
ssS'PEREIRA PAULO V. FERRAZ'
p187
(dp188
g3
I00
sg4
F0.0
ssS'STABLER FRANK'
p189
(dp190
g3
I00
sg4
F0.0
ssS'SKILLING JEFFREY K'
p191
(dp192
g3
I01
sg4
I19250000
ssS'BLAKE JR. NORMAN P'
p193
(dp194
g3
I00
sg4
F0.0
ssS'SHERRICK JEFFREY B'
p195
(dp196
g3
I00
sg4
I1426469
ssS'PRENTICE JAMES'
p197
(dp198
g3
I00
sg4
I886231
ssS'GRAY RODNEY'
p199
(dp200
g3
I00
sg4
F0.0
ssS'PICKERING MARK R'
p201
(dp202
g3
I00
sg4
I28798
ssS'NOLES JAMES L'
p203
(dp204
g3
I00
sg4
F0.0
ssS'KEAN STEVEN J'
p205
(dp206
g3
I00
sg4
I2022048
ssS'FOWLER PEGGY'
p207
(dp208
g3
I00
sg4
I1324578
ssS'WASAFF GEORGE'
p209
(dp210
g3
I00
sg4
I1668260
ssS'WHITE JR THOMAS E'
p211
(dp212
g3
I00
sg4
I1297049
ssS'CHRISTODOULOU DIOMEDES'
p213
(dp214
g3
I00
sg4
I5127155
ssS'ALLEN PHILLIP K'
p215
(dp216
g3
I00
sg4
I1729541
ssS'SHARP VICTORIA T'
p217
(dp218
g3
I00
sg4
I281073
ssS'JAEDICKE ROBERT'
p219
(dp220
g3
I00
sg4
I431750
ssS'WINOKUR JR. HERBERT S'
p221
(dp222
g3
I00
sg4
F0.0
ssS'BROWN MICHAEL'
p223
(dp224
g3
I00
sg4
F0.0
ssS'BADUM JAMES P'
p225
(dp226
g3
I00
sg4
I257817
ssS'HUGHES JAMES A'
p227
(dp228
g3
I00
sg4
I754966
ssS'REYNOLDS LAWRENCE'
p229
(dp230
g3
I00
sg4
I4160672
ssS'DIMICHELE RICHARD G'
p231
(dp232
g3
I00
sg4
I8191755
ssS'BHATNAGAR SANJAY'
p233
(dp234
g3
I00
sg4
I2604490
ssS'CARTER REBECCA C'
p235
(dp236
g3
I00
sg4
F0.0
ssS'BUCHANAN HAROLD G'
p237
(dp238
g3
I00
sg4
I825464
ssS'YEAP SOON'
p239
(dp240
g3
I00
sg4
I192758
ssS'MURRAY JULIA H'
p241
(dp242
g3
I00
sg4
I400478
ssS'GARLAND C KEVIN'
p243
(dp244
g3
I00
sg4
I636246
ssS'DODSON KEITH'
p245
(dp246
g3
I00
sg4
F0.0
ssS'YEAGER F SCOTT'
p247
(dp248
g3
I01
sg4
I8308552
ssS'HIRKO JOSEPH'
p249
(dp250
g3
I01
sg4
I30766064
ssS'DIETRICH JANET R'
p251
(dp252
g3
I00
sg4
I1550019
ssS'DERRICK JR. JAMES V'
p253
(dp254
g3
I00
sg4
I8831913
ssS'FREVERT MARK A'
p255
(dp256
g3
I00
sg4
I10433518
ssS'PAI LOU L'
p257
(dp258
g3
I00
sg4
I15364167
ssS'BAY FRANKLIN R'
p259
(dp260
g3
I00
sg4
F0.0
ssS'HAYSLETT RODERICK J'
p261
(dp262
g3
I00
sg4
F0.0
ssS'FUGH JOHN L'
p263
(dp264
g3
I00
sg4
I176378
ssS'FALLON JAMES B'
p265
(dp266
g3
I00
sg4
I940257
ssS'KOENIG MARK E'
p267
(dp268
g3
I01
sg4
I671737
ssS'SAVAGE FRANK'
p269
(dp270
g3
I00
sg4
F0.0
ssS'IZZO LAWRENCE L'
p271
(dp272
g3
I00
sg4
I2165172
ssS'TILNEY ELIZABETH A'
p273
(dp274
g3
I00
sg4
I591250
ssS'MARTIN AMANDA K'
p275
(dp276
g3
I00
sg4
I2070306
ssS'BUY RICHARD B'
p277
(dp278
g3
I00
sg4
I2542813
ssS'GRAMM WENDY L'
p279
(dp280
g3
I00
sg4
F0.0
ssS'CAUSEY RICHARD A'
p281
(dp282
g3
I01
sg4
F0.0
ssS'TAYLOR MITCHELL S'
p283
(dp284
g3
I00
sg4
I3181250
ssS'DONAHUE JR JEFFREY M'
p285
(dp286
g3
I00
sg4
I765920
ssS'GLISAN JR BEN F'
p287
(dp288
g3
I01
sg4
I384728
ss.